target datalayout = "e-m:e-p270:32:32-p271:32:32-p272:64:64-i64:64-i128:128-f80:128-n8:16:32:64-S128"
target triple = "x86_64-unknown-linux-gnu"

%class.counter = type { %class.u_map }
%class.u_map = type { %class.map }
%class.map = type { %class.table2map }
%class.table2map = type { %class.core_hashtable }
%class.core_hashtable = type <{ ptr, i32, i32, i32, [4 x i8] }>
%struct._key_data = type { i32, i32 }
%"class.core_hashtable<default_map_entry<unsigned int, int>, table2map<default_map_entry<unsigned int, int>, u_hash, u_eq>::entry_hash_proc, table2map<default_map_entry<unsigned int, int>, u_hash, u_eq>::entry_eq_proc>::iterator" = type { ptr, ptr }
%class.default_map_entry = type { %class.default_hash_entry }
%class.default_hash_entry = type { i32, i32, %struct._key_data }

; Function Attrs: mustprogress uwtable
define linkonce_odr hidden void @_ZN14core_hashtableI17default_map_entryIjiEN9table2mapIS1_6u_hash4u_eqE15entry_hash_procENS5_13entry_eq_procEE8iteratorC2EPS1_SA_(ptr noundef nonnull align 8 dereferenceable(16) %this, ptr noundef %start, ptr noundef %end) unnamed_addr #4 comdat align 2 {
entry:
  %this.addr = alloca ptr, align 8
  %start.addr = alloca ptr, align 8
  %end.addr = alloca ptr, align 8
  store ptr %this, ptr %this.addr, align 8
  store ptr %start, ptr %start.addr, align 8
  store ptr %end, ptr %end.addr, align 8
  %this1 = load ptr, ptr %this.addr, align 8
  %m_curr = getelementptr inbounds %"class.core_hashtable<default_map_entry<unsigned int, int>, table2map<default_map_entry<unsigned int, int>, u_hash, u_eq>::entry_hash_proc, table2map<default_map_entry<unsigned int, int>, u_hash, u_eq>::entry_eq_proc>::iterator", ptr %this1, i32 0, i32 0
  %0 = load ptr, ptr %start.addr, align 8
  store ptr %0, ptr %m_curr, align 8
  %m_end = getelementptr inbounds %"class.core_hashtable<default_map_entry<unsigned int, int>, table2map<default_map_entry<unsigned int, int>, u_hash, u_eq>::entry_hash_proc, table2map<default_map_entry<unsigned int, int>, u_hash, u_eq>::entry_eq_proc>::iterator", ptr %this1, i32 0, i32 1
  %1 = load ptr, ptr %end.addr, align 8
  store ptr %1, ptr %m_end, align 8
  call void @_ZN14core_hashtableI17default_map_entryIjiEN9table2mapIS1_6u_hash4u_eqE15entry_hash_procENS5_13entry_eq_procEE8iterator12move_to_usedEv(ptr noundef nonnull align 8 dereferenceable(16) %this1)
  ret void
}

; Function Attrs: mustprogress nounwind uwtable
define linkonce_odr hidden noundef zeroext i1 @_ZNK18default_hash_entryI9_key_dataIjiEE7is_usedEv(ptr noundef nonnull align 4 dereferenceable(16) %this) #5 comdat align 2 {
entry:
  %this.addr = alloca ptr, align 8
  store ptr %this, ptr %this.addr, align 8
  %this1 = load ptr, ptr %this.addr, align 8
  %m_state = getelementptr inbounds %class.default_hash_entry, ptr %this1, i32 0, i32 1
  %0 = load i32, ptr %m_state, align 4
  %cmp = icmp eq i32 %0, 2
  ret i1 %cmp
}

; Function Attrs: mustprogress uwtable
define linkonce_odr hidden { ptr, ptr } @_ZNK14core_hashtableI17default_map_entryIjiEN9table2mapIS1_6u_hash4u_eqE15entry_hash_procENS5_13entry_eq_procEE3endEv(ptr noundef nonnull align 8 dereferenceable(20) %this) #4 comdat align 2 {
entry:
  %retval = alloca %"class.core_hashtable<default_map_entry<unsigned int, int>, table2map<default_map_entry<unsigned int, int>, u_hash, u_eq>::entry_hash_proc, table2map<default_map_entry<unsigned int, int>, u_hash, u_eq>::entry_eq_proc>::iterator", align 8
  %this.addr = alloca ptr, align 8
  store ptr %this, ptr %this.addr, align 8
  %this1 = load ptr, ptr %this.addr, align 8
  %m_table = getelementptr inbounds %class.core_hashtable, ptr %this1, i32 0, i32 0
  %0 = load ptr, ptr %m_table, align 8
  %m_capacity = getelementptr inbounds %class.core_hashtable, ptr %this1, i32 0, i32 1
  %1 = load i32, ptr %m_capacity, align 8
  %idx.ext = zext i32 %1 to i64
  %add.ptr = getelementptr inbounds %class.default_map_entry, ptr %0, i64 %idx.ext
  %m_table2 = getelementptr inbounds %class.core_hashtable, ptr %this1, i32 0, i32 0
  %2 = load ptr, ptr %m_table2, align 8
  %m_capacity3 = getelementptr inbounds %class.core_hashtable, ptr %this1, i32 0, i32 1
  %3 = load i32, ptr %m_capacity3, align 8
  %idx.ext4 = zext i32 %3 to i64
  %add.ptr5 = getelementptr inbounds %class.default_map_entry, ptr %2, i64 %idx.ext4
  call void @_ZN14core_hashtableI17default_map_entryIjiEN9table2mapIS1_6u_hash4u_eqE15entry_hash_procENS5_13entry_eq_procEE8iteratorC2EPS1_SA_(ptr noundef nonnull align 8 dereferenceable(16) %retval, ptr noundef %add.ptr, ptr noundef %add.ptr5)
  %4 = load { ptr, ptr }, ptr %retval, align 8
  ret { ptr, ptr } %4
}

; Function Attrs: mustprogress uwtable
define linkonce_odr hidden { ptr, ptr } @_ZNK14core_hashtableI17default_map_entryIjiEN9table2mapIS1_6u_hash4u_eqE15entry_hash_procENS5_13entry_eq_procEE5beginEv(ptr noundef nonnull align 8 dereferenceable(20) %this) #4 comdat align 2 {
entry:
  %retval = alloca %"class.core_hashtable<default_map_entry<unsigned int, int>, table2map<default_map_entry<unsigned int, int>, u_hash, u_eq>::entry_hash_proc, table2map<default_map_entry<unsigned int, int>, u_hash, u_eq>::entry_eq_proc>::iterator", align 8
  %this.addr = alloca ptr, align 8
  store ptr %this, ptr %this.addr, align 8
  %this1 = load ptr, ptr %this.addr, align 8
  %m_table = getelementptr inbounds %class.core_hashtable, ptr %this1, i32 0, i32 0
  %0 = load ptr, ptr %m_table, align 8
  %m_table2 = getelementptr inbounds %class.core_hashtable, ptr %this1, i32 0, i32 0
  %1 = load ptr, ptr %m_table2, align 8
  %m_capacity = getelementptr inbounds %class.core_hashtable, ptr %this1, i32 0, i32 1
  %2 = load i32, ptr %m_capacity, align 8
  %idx.ext = zext i32 %2 to i64
  %add.ptr = getelementptr inbounds %class.default_map_entry, ptr %1, i64 %idx.ext
  call void @_ZN14core_hashtableI17default_map_entryIjiEN9table2mapIS1_6u_hash4u_eqE15entry_hash_procENS5_13entry_eq_procEE8iteratorC2EPS1_SA_(ptr noundef nonnull align 8 dereferenceable(16) %retval, ptr noundef %0, ptr noundef %add.ptr)
  %3 = load { ptr, ptr }, ptr %retval, align 8
  ret { ptr, ptr } %3
}

; Function Attrs: mustprogress uwtable
define linkonce_odr hidden void @_ZN14core_hashtableI17default_map_entryIjiEN9table2mapIS1_6u_hash4u_eqE15entry_hash_procENS5_13entry_eq_procEE8iterator12move_to_usedEv(ptr noundef nonnull align 8 dereferenceable(16) %this) #4 comdat align 2 {
entry:
  %this.addr = alloca ptr, align 8
  store ptr %this, ptr %this.addr, align 8
  %this1 = load ptr, ptr %this.addr, align 8
  br label %while.cond

while.cond:                                       ; preds = %while.body, %entry
  %m_curr = getelementptr inbounds %"class.core_hashtable<default_map_entry<unsigned int, int>, table2map<default_map_entry<unsigned int, int>, u_hash, u_eq>::entry_hash_proc, table2map<default_map_entry<unsigned int, int>, u_hash, u_eq>::entry_eq_proc>::iterator", ptr %this1, i32 0, i32 0
  %0 = load ptr, ptr %m_curr, align 8
  %m_end = getelementptr inbounds %"class.core_hashtable<default_map_entry<unsigned int, int>, table2map<default_map_entry<unsigned int, int>, u_hash, u_eq>::entry_hash_proc, table2map<default_map_entry<unsigned int, int>, u_hash, u_eq>::entry_eq_proc>::iterator", ptr %this1, i32 0, i32 1
  %1 = load ptr, ptr %m_end, align 8
  %cmp = icmp ne ptr %0, %1
  br i1 %cmp, label %land.rhs, label %land.end

land.rhs:                                         ; preds = %while.cond
  %m_curr2 = getelementptr inbounds %"class.core_hashtable<default_map_entry<unsigned int, int>, table2map<default_map_entry<unsigned int, int>, u_hash, u_eq>::entry_hash_proc, table2map<default_map_entry<unsigned int, int>, u_hash, u_eq>::entry_eq_proc>::iterator", ptr %this1, i32 0, i32 0
  %2 = load ptr, ptr %m_curr2, align 8
  %call = call noundef zeroext i1 @_ZNK18default_hash_entryI9_key_dataIjiEE7is_usedEv(ptr noundef nonnull align 4 dereferenceable(16) %2)
  %lnot = xor i1 %call, true
  br label %land.end

land.end:                                         ; preds = %land.rhs, %while.cond
  %3 = phi i1 [ false, %while.cond ], [ %lnot, %land.rhs ]
  br i1 %3, label %while.body, label %while.end

while.body:                                       ; preds = %land.end
  %m_curr3 = getelementptr inbounds %"class.core_hashtable<default_map_entry<unsigned int, int>, table2map<default_map_entry<unsigned int, int>, u_hash, u_eq>::entry_hash_proc, table2map<default_map_entry<unsigned int, int>, u_hash, u_eq>::entry_eq_proc>::iterator", ptr %this1, i32 0, i32 0
  %4 = load ptr, ptr %m_curr3, align 8
  %incdec.ptr = getelementptr inbounds %class.default_map_entry, ptr %4, i32 1
  store ptr %incdec.ptr, ptr %m_curr3, align 8
  br label %while.cond, !llvm.loop !11

while.end:                                        ; preds = %land.end
  ret void
}

; Function Attrs: mustprogress nounwind uwtable
define linkonce_odr hidden noundef nonnull align 4 dereferenceable(8) ptr @_ZN18default_hash_entryI9_key_dataIjiEE8get_dataEv(ptr noundef nonnull align 4 dereferenceable(16) %this) #5 comdat align 2 {
entry:
  %this.addr = alloca ptr, align 8
  store ptr %this, ptr %this.addr, align 8
  %this1 = load ptr, ptr %this.addr, align 8
  %m_data = getelementptr inbounds %class.default_hash_entry, ptr %this1, i32 0, i32 2
  ret ptr %m_data
}

; Function Attrs: mustprogress uwtable
define linkonce_odr hidden { ptr, ptr } @_ZNK9table2mapI17default_map_entryIjiE6u_hash4u_eqE3endEv(ptr noundef nonnull align 8 dereferenceable(24) %this) #4 comdat align 2 {
entry:
  %retval = alloca %"class.core_hashtable<default_map_entry<unsigned int, int>, table2map<default_map_entry<unsigned int, int>, u_hash, u_eq>::entry_hash_proc, table2map<default_map_entry<unsigned int, int>, u_hash, u_eq>::entry_eq_proc>::iterator", align 8
  %this.addr = alloca ptr, align 8
  store ptr %this, ptr %this.addr, align 8
  %this1 = load ptr, ptr %this.addr, align 8
  %m_table = getelementptr inbounds %class.table2map, ptr %this1, i32 0, i32 0
  %call = call { ptr, ptr } @_ZNK14core_hashtableI17default_map_entryIjiEN9table2mapIS1_6u_hash4u_eqE15entry_hash_procENS5_13entry_eq_procEE3endEv(ptr noundef nonnull align 8 dereferenceable(20) %m_table)
  %0 = getelementptr inbounds { ptr, ptr }, ptr %retval, i32 0, i32 0
  %1 = extractvalue { ptr, ptr } %call, 0
  store ptr %1, ptr %0, align 8
  %2 = getelementptr inbounds { ptr, ptr }, ptr %retval, i32 0, i32 1
  %3 = extractvalue { ptr, ptr } %call, 1
  store ptr %3, ptr %2, align 8
  %4 = load { ptr, ptr }, ptr %retval, align 8
  ret { ptr, ptr } %4
}

; Function Attrs: mustprogress uwtable
define linkonce_odr hidden { ptr, ptr } @_ZNK9table2mapI17default_map_entryIjiE6u_hash4u_eqE5beginEv(ptr noundef nonnull align 8 dereferenceable(24) %this) #4 comdat align 2 {
entry:
  %retval = alloca %"class.core_hashtable<default_map_entry<unsigned int, int>, table2map<default_map_entry<unsigned int, int>, u_hash, u_eq>::entry_hash_proc, table2map<default_map_entry<unsigned int, int>, u_hash, u_eq>::entry_eq_proc>::iterator", align 8
  %this.addr = alloca ptr, align 8
  store ptr %this, ptr %this.addr, align 8
  %this1 = load ptr, ptr %this.addr, align 8
  %m_table = getelementptr inbounds %class.table2map, ptr %this1, i32 0, i32 0
  %call = call { ptr, ptr } @_ZNK14core_hashtableI17default_map_entryIjiEN9table2mapIS1_6u_hash4u_eqE15entry_hash_procENS5_13entry_eq_procEE5beginEv(ptr noundef nonnull align 8 dereferenceable(20) %m_table)
  %0 = getelementptr inbounds { ptr, ptr }, ptr %retval, i32 0, i32 0
  %1 = extractvalue { ptr, ptr } %call, 0
  store ptr %1, ptr %0, align 8
  %2 = getelementptr inbounds { ptr, ptr }, ptr %retval, i32 0, i32 1
  %3 = extractvalue { ptr, ptr } %call, 1
  store ptr %3, ptr %2, align 8
  %4 = load { ptr, ptr }, ptr %retval, align 8
  ret { ptr, ptr } %4
}

; Function Attrs: mustprogress uwtable
define linkonce_odr hidden noundef nonnull align 8 dereferenceable(16) ptr @_ZN14core_hashtableI17default_map_entryIjiEN9table2mapIS1_6u_hash4u_eqE15entry_hash_procENS5_13entry_eq_procEE8iteratorppEv(ptr noundef nonnull align 8 dereferenceable(16) %this) #4 comdat align 2 {
entry:
  %this.addr = alloca ptr, align 8
  store ptr %this, ptr %this.addr, align 8
  %this1 = load ptr, ptr %this.addr, align 8
  %m_curr = getelementptr inbounds %"class.core_hashtable<default_map_entry<unsigned int, int>, table2map<default_map_entry<unsigned int, int>, u_hash, u_eq>::entry_hash_proc, table2map<default_map_entry<unsigned int, int>, u_hash, u_eq>::entry_eq_proc>::iterator", ptr %this1, i32 0, i32 0
  %0 = load ptr, ptr %m_curr, align 8
  %incdec.ptr = getelementptr inbounds %class.default_map_entry, ptr %0, i32 1
  store ptr %incdec.ptr, ptr %m_curr, align 8
  call void @_ZN14core_hashtableI17default_map_entryIjiEN9table2mapIS1_6u_hash4u_eqE15entry_hash_procENS5_13entry_eq_procEE8iterator12move_to_usedEv(ptr noundef nonnull align 8 dereferenceable(16) %this1)
  ret ptr %this1
}

; Function Attrs: mustprogress nounwind uwtable
define linkonce_odr hidden noundef nonnull align 4 dereferenceable(8) ptr @_ZN14core_hashtableI17default_map_entryIjiEN9table2mapIS1_6u_hash4u_eqE15entry_hash_procENS5_13entry_eq_procEE8iteratordeEv(ptr noundef nonnull align 8 dereferenceable(16) %this) #5 comdat align 2 {
entry:
  %this.addr = alloca ptr, align 8
  store ptr %this, ptr %this.addr, align 8
  %this1 = load ptr, ptr %this.addr, align 8
  %m_curr = getelementptr inbounds %"class.core_hashtable<default_map_entry<unsigned int, int>, table2map<default_map_entry<unsigned int, int>, u_hash, u_eq>::entry_hash_proc, table2map<default_map_entry<unsigned int, int>, u_hash, u_eq>::entry_eq_proc>::iterator", ptr %this1, i32 0, i32 0
  %0 = load ptr, ptr %m_curr, align 8
  %call = call noundef nonnull align 4 dereferenceable(8) ptr @_ZN18default_hash_entryI9_key_dataIjiEE8get_dataEv(ptr noundef nonnull align 4 dereferenceable(16) %0)
  ret ptr %call
}

; Function Attrs: mustprogress nounwind uwtable
define linkonce_odr hidden noundef zeroext i1 @_ZNK14core_hashtableI17default_map_entryIjiEN9table2mapIS1_6u_hash4u_eqE15entry_hash_procENS5_13entry_eq_procEE8iteratorneERKS9_(ptr noundef nonnull align 8 dereferenceable(16) %this, ptr noundef nonnull align 8 dereferenceable(16) %it) #5 comdat align 2 {
entry:
  %this.addr = alloca ptr, align 8
  %it.addr = alloca ptr, align 8
  store ptr %this, ptr %this.addr, align 8
  store ptr %it, ptr %it.addr, align 8
  %this1 = load ptr, ptr %this.addr, align 8
  %m_curr = getelementptr inbounds %"class.core_hashtable<default_map_entry<unsigned int, int>, table2map<default_map_entry<unsigned int, int>, u_hash, u_eq>::entry_hash_proc, table2map<default_map_entry<unsigned int, int>, u_hash, u_eq>::entry_eq_proc>::iterator", ptr %this1, i32 0, i32 0
  %0 = load ptr, ptr %m_curr, align 8
  %1 = load ptr, ptr %it.addr, align 8
  %m_curr2 = getelementptr inbounds %"class.core_hashtable<default_map_entry<unsigned int, int>, table2map<default_map_entry<unsigned int, int>, u_hash, u_eq>::entry_hash_proc, table2map<default_map_entry<unsigned int, int>, u_hash, u_eq>::entry_eq_proc>::iterator", ptr %1, i32 0, i32 0
  %2 = load ptr, ptr %m_curr2, align 8
  %cmp = icmp ne ptr %0, %2
  ret i1 %cmp
}

; Function Attrs: mustprogress uwtable
define linkonce_odr hidden { ptr, ptr } @_ZNK7counter3endEv(ptr noundef nonnull align 8 dereferenceable(24) %this) #4 comdat align 2 {
entry:
  %retval = alloca %"class.core_hashtable<default_map_entry<unsigned int, int>, table2map<default_map_entry<unsigned int, int>, u_hash, u_eq>::entry_hash_proc, table2map<default_map_entry<unsigned int, int>, u_hash, u_eq>::entry_eq_proc>::iterator", align 8
  %this.addr = alloca ptr, align 8
  store ptr %this, ptr %this.addr, align 8
  %this1 = load ptr, ptr %this.addr, align 8
  %m_data = getelementptr inbounds %class.counter, ptr %this1, i32 0, i32 0
  %call = call { ptr, ptr } @_ZNK9table2mapI17default_map_entryIjiE6u_hash4u_eqE3endEv(ptr noundef nonnull align 8 dereferenceable(24) %m_data)
  %0 = getelementptr inbounds { ptr, ptr }, ptr %retval, i32 0, i32 0
  %1 = extractvalue { ptr, ptr } %call, 0
  store ptr %1, ptr %0, align 8
  %2 = getelementptr inbounds { ptr, ptr }, ptr %retval, i32 0, i32 1
  %3 = extractvalue { ptr, ptr } %call, 1
  store ptr %3, ptr %2, align 8
  %4 = load { ptr, ptr }, ptr %retval, align 8
  ret { ptr, ptr } %4
}

; Function Attrs: mustprogress uwtable
define linkonce_odr hidden { ptr, ptr } @_ZNK7counter5beginEv(ptr noundef nonnull align 8 dereferenceable(24) %this) #4 comdat align 2 {
entry:
  %retval = alloca %"class.core_hashtable<default_map_entry<unsigned int, int>, table2map<default_map_entry<unsigned int, int>, u_hash, u_eq>::entry_hash_proc, table2map<default_map_entry<unsigned int, int>, u_hash, u_eq>::entry_eq_proc>::iterator", align 8
  %this.addr = alloca ptr, align 8
  store ptr %this, ptr %this.addr, align 8
  %this1 = load ptr, ptr %this.addr, align 8
  %m_data = getelementptr inbounds %class.counter, ptr %this1, i32 0, i32 0
  %call = call { ptr, ptr } @_ZNK9table2mapI17default_map_entryIjiE6u_hash4u_eqE5beginEv(ptr noundef nonnull align 8 dereferenceable(24) %m_data)
  %0 = getelementptr inbounds { ptr, ptr }, ptr %retval, i32 0, i32 0
  %1 = extractvalue { ptr, ptr } %call, 0
  store ptr %1, ptr %0, align 8
  %2 = getelementptr inbounds { ptr, ptr }, ptr %retval, i32 0, i32 1
  %3 = extractvalue { ptr, ptr } %call, 1
  store ptr %3, ptr %2, align 8
  %4 = load { ptr, ptr }, ptr %retval, align 8
  ret { ptr, ptr } %4
}

; Function Attrs: mustprogress uwtable
define hidden noundef i32 @_ZNK7counter18get_positive_countEv(ptr noundef nonnull align 8 dereferenceable(24) %this) #4 align 2 {
entry:
  %this.addr = alloca ptr, align 8
  %cnt = alloca i32, align 4
  %__range1 = alloca ptr, align 8
  %__begin1 = alloca %"class.core_hashtable<default_map_entry<unsigned int, int>, table2map<default_map_entry<unsigned int, int>, u_hash, u_eq>::entry_hash_proc, table2map<default_map_entry<unsigned int, int>, u_hash, u_eq>::entry_eq_proc>::iterator", align 8
  %__end1 = alloca %"class.core_hashtable<default_map_entry<unsigned int, int>, table2map<default_map_entry<unsigned int, int>, u_hash, u_eq>::entry_hash_proc, table2map<default_map_entry<unsigned int, int>, u_hash, u_eq>::entry_eq_proc>::iterator", align 8
  %kv = alloca ptr, align 8
  store ptr %this, ptr %this.addr, align 8
  %this1 = load ptr, ptr %this.addr, align 8
  store i32 0, ptr %cnt, align 4
  store ptr %this1, ptr %__range1, align 8
  %0 = load ptr, ptr %__range1, align 8
  %call = call { ptr, ptr } @_ZNK7counter5beginEv(ptr noundef nonnull align 8 dereferenceable(24) %0)
  %1 = getelementptr inbounds { ptr, ptr }, ptr %__begin1, i32 0, i32 0
  %2 = extractvalue { ptr, ptr } %call, 0
  store ptr %2, ptr %1, align 8
  %3 = getelementptr inbounds { ptr, ptr }, ptr %__begin1, i32 0, i32 1
  %4 = extractvalue { ptr, ptr } %call, 1
  store ptr %4, ptr %3, align 8
  %5 = load ptr, ptr %__range1, align 8
  %call2 = call { ptr, ptr } @_ZNK7counter3endEv(ptr noundef nonnull align 8 dereferenceable(24) %5)
  %6 = getelementptr inbounds { ptr, ptr }, ptr %__end1, i32 0, i32 0
  %7 = extractvalue { ptr, ptr } %call2, 0
  store ptr %7, ptr %6, align 8
  %8 = getelementptr inbounds { ptr, ptr }, ptr %__end1, i32 0, i32 1
  %9 = extractvalue { ptr, ptr } %call2, 1
  store ptr %9, ptr %8, align 8
  br label %for.cond

for.cond:                                         ; preds = %for.inc, %entry
  %call3 = call noundef zeroext i1 @_ZNK14core_hashtableI17default_map_entryIjiEN9table2mapIS1_6u_hash4u_eqE15entry_hash_procENS5_13entry_eq_procEE8iteratorneERKS9_(ptr noundef nonnull align 8 dereferenceable(16) %__begin1, ptr noundef nonnull align 8 dereferenceable(16) %__end1)
  br i1 %call3, label %for.body, label %for.end

for.body:                                         ; preds = %for.cond
  %call4 = call noundef nonnull align 4 dereferenceable(8) ptr @_ZN14core_hashtableI17default_map_entryIjiEN9table2mapIS1_6u_hash4u_eqE15entry_hash_procENS5_13entry_eq_procEE8iteratordeEv(ptr noundef nonnull align 8 dereferenceable(16) %__begin1)
  store ptr %call4, ptr %kv, align 8
  %10 = load ptr, ptr %kv, align 8
  %m_value = getelementptr inbounds %struct._key_data, ptr %10, i32 0, i32 1
  %11 = load i32, ptr %m_value, align 4
  %cmp = icmp sgt i32 %11, 0
  br i1 %cmp, label %if.then, label %if.end

if.then:                                          ; preds = %for.body
  %12 = load i32, ptr %cnt, align 4
  %inc = add i32 %12, 1
  store i32 %inc, ptr %cnt, align 4
  br label %if.end

if.end:                                           ; preds = %if.then, %for.body
  br label %for.inc

for.inc:                                          ; preds = %if.end
  %call5 = call noundef nonnull align 8 dereferenceable(16) ptr @_ZN14core_hashtableI17default_map_entryIjiEN9table2mapIS1_6u_hash4u_eqE15entry_hash_procENS5_13entry_eq_procEE8iteratorppEv(ptr noundef nonnull align 8 dereferenceable(16) %__begin1)
  br label %for.cond

for.end:                                          ; preds = %for.cond
  %13 = load i32, ptr %cnt, align 4
  ret i32 %13
}