; Function Attrs: mustprogress nofree norecurse nosync nounwind willreturn memory(read, inaccessiblemem: none) uwtable
define hidden noundef i32 @_ZNK7counter18get_positive_countEv(ptr nocapture noundef nonnull readonly align 8 dereferenceable(24) %this) local_unnamed_addr #4 align 2 {
entry:
  %0 = load ptr, ptr %this, align 8
  %m_capacity.i.i.i = getelementptr inbounds i8, ptr %this, i64 8
  %1 = load i32, ptr %m_capacity.i.i.i, align 8
  %idx.ext.i.i.i = zext i32 %1 to i64
  %add.ptr.i.i.i = getelementptr inbounds %class.default_map_entry, ptr %0, i64 %idx.ext.i.i.i
  %cmp.not2.i.i.i.i.i = icmp eq i32 %1, 0
  br i1 %cmp.not2.i.i.i.i.i, label %_ZNK7counter5beginEv.exit, label %land.rhs.i.i.i.i.i

land.rhs.i.i.i.i.i:                               ; preds = %entry, %while.body.i.i.i.i.i
  %retval.sroa.0.0.i.i.i = phi ptr [ %incdec.ptr.i.i.i.i.i, %while.body.i.i.i.i.i ], [ %0, %entry ]
  %m_state.i.i.i.i.i.i = getelementptr inbounds i8, ptr %retval.sroa.0.0.i.i.i, i64 4
  %2 = load i32, ptr %m_state.i.i.i.i.i.i, align 4
  %cmp.i.i.i.i.i.i = icmp eq i32 %2, 2
  br i1 %cmp.i.i.i.i.i.i, label %_ZNK7counter5beginEv.exit, label %while.body.i.i.i.i.i

while.body.i.i.i.i.i:                             ; preds = %land.rhs.i.i.i.i.i
  %incdec.ptr.i.i.i.i.i = getelementptr inbounds i8, ptr %retval.sroa.0.0.i.i.i, i64 16
  %cmp.not.i.i.i.i.i = icmp eq ptr %incdec.ptr.i.i.i.i.i, %add.ptr.i.i.i
  br i1 %cmp.not.i.i.i.i.i, label %for.end, label %land.rhs.i.i.i.i.i, !llvm.loop !6

_ZNK7counter5beginEv.exit:                        ; preds = %land.rhs.i.i.i.i.i, %entry
  %retval.sroa.0.1.i.i.i = phi ptr [ %0, %entry ], [ %retval.sroa.0.0.i.i.i, %land.rhs.i.i.i.i.i ]
  %cmp.i.not10 = icmp eq ptr %retval.sroa.0.1.i.i.i, %add.ptr.i.i.i
  br i1 %cmp.i.not10, label %for.end, label %for.body

for.body:                                         ; preds = %_ZNK7counter5beginEv.exit, %_ZN14core_hashtableI17default_map_entryIjiEN9table2mapIS1_6u_hash4u_eqE15entry_hash_procENS5_13entry_eq_procEE8iteratorppEv.exit
  %cnt.012 = phi i32 [ %spec.select, %_ZN14core_hashtableI17default_map_entryIjiEN9table2mapIS1_6u_hash4u_eqE15entry_hash_procENS5_13entry_eq_procEE8iteratorppEv.exit ], [ 0, %_ZNK7counter5beginEv.exit ]
  %__begin1.sroa.0.011 = phi ptr [ %__begin1.sroa.0.1, %_ZN14core_hashtableI17default_map_entryIjiEN9table2mapIS1_6u_hash4u_eqE15entry_hash_procENS5_13entry_eq_procEE8iteratorppEv.exit ], [ %retval.sroa.0.1.i.i.i, %_ZNK7counter5beginEv.exit ]
  %m_value = getelementptr inbounds i8, ptr %__begin1.sroa.0.011, i64 12
  %3 = load i32, ptr %m_value, align 4
  %cmp = icmp sgt i32 %3, 0
  %inc = zext i1 %cmp to i32
  %spec.select = add i32 %cnt.012, %inc
  %incdec.ptr.i = getelementptr inbounds i8, ptr %__begin1.sroa.0.011, i64 16
  %cmp.not2.i.i = icmp eq ptr %incdec.ptr.i, %add.ptr.i.i.i
  br i1 %cmp.not2.i.i, label %for.end, label %land.rhs.i.i

land.rhs.i.i:                                     ; preds = %for.body, %while.body.i.i
  %__begin1.sroa.0.1 = phi ptr [ %incdec.ptr.i.i, %while.body.i.i ], [ %incdec.ptr.i, %for.body ]
  %m_state.i.i.i = getelementptr inbounds i8, ptr %__begin1.sroa.0.1, i64 4
  %4 = load i32, ptr %m_state.i.i.i, align 4
  %cmp.i.i.i = icmp eq i32 %4, 2
  br i1 %cmp.i.i.i, label %_ZN14core_hashtableI17default_map_entryIjiEN9table2mapIS1_6u_hash4u_eqE15entry_hash_procENS5_13entry_eq_procEE8iteratorppEv.exit, label %while.body.i.i

while.body.i.i:                                   ; preds = %land.rhs.i.i
  %incdec.ptr.i.i = getelementptr inbounds i8, ptr %__begin1.sroa.0.1, i64 16
  %cmp.not.i.i = icmp eq ptr %incdec.ptr.i.i, %add.ptr.i.i.i
  br i1 %cmp.not.i.i, label %for.end, label %land.rhs.i.i, !llvm.loop !6

_ZN14core_hashtableI17default_map_entryIjiEN9table2mapIS1_6u_hash4u_eqE15entry_hash_procENS5_13entry_eq_procEE8iteratorppEv.exit: ; preds = %land.rhs.i.i
  %cmp.i.not = icmp eq ptr %__begin1.sroa.0.1, %add.ptr.i.i.i
  br i1 %cmp.i.not, label %for.end, label %for.body

for.end:                                          ; preds = %while.body.i.i.i.i.i, %for.body, %_ZN14core_hashtableI17default_map_entryIjiEN9table2mapIS1_6u_hash4u_eqE15entry_hash_procENS5_13entry_eq_procEE8iteratorppEv.exit, %while.body.i.i, %_ZNK7counter5beginEv.exit
  %cnt.0.lcssa = phi i32 [ 0, %_ZNK7counter5beginEv.exit ], [ %spec.select, %while.body.i.i ], [ %spec.select, %_ZN14core_hashtableI17default_map_entryIjiEN9table2mapIS1_6u_hash4u_eqE15entry_hash_procENS5_13entry_eq_procEE8iteratorppEv.exit ], [ %spec.select, %for.body ], [ 0, %while.body.i.i.i.i.i ]
  ret i32 %cnt.0.lcssa
}